; Function Attrs: mustprogress nofree norecurse nosync nounwind willreturn memory(write, argmem: readwrite, inaccessiblemem: none) uwtable
define void @_ZN4cvc57context7Context15addNotifyObjPreEPNS0_16ContextNotifyObjE(ptr noundef nonnull align 8 dereferenceable(48) %this, ptr noundef %pCNO) local_unnamed_addr #9 align 2 {
entry:
  %d_pCNOpre = getelementptr inbounds i8, ptr %this, i64 32
  %0 = load ptr, ptr %d_pCNOpre, align 8
  %cmp.not = icmp eq ptr %0, null
  br i1 %cmp.not, label %if.end, label %if.then

if.then:                                          ; preds = %entry
  %d_pCNOnext.i = getelementptr inbounds i8, ptr %pCNO, i64 8
  %d_ppCNOprev.i = getelementptr inbounds i8, ptr %0, i64 16
  store ptr %d_pCNOnext.i, ptr %d_ppCNOprev.i, align 8
  %.pre = load ptr, ptr %d_pCNOpre, align 8
  br label %if.end

if.end:                                           ; preds = %if.then, %entry
  %1 = phi ptr [ %.pre, %if.then ], [ null, %entry ]
  %d_pCNOnext.i4 = getelementptr inbounds i8, ptr %pCNO, i64 8
  store ptr %1, ptr %d_pCNOnext.i4, align 8
  %d_ppCNOprev.i5 = getelementptr inbounds i8, ptr %pCNO, i64 16
  store ptr %d_pCNOpre, ptr %d_ppCNOprev.i5, align 8
  store ptr %pCNO, ptr %d_pCNOpre, align 8
  ret void
}